; Function Attrs: mustprogress nounwind uwtable
define hidden void @_ZN6google8protobuf2io19OstreamOutputStreamD0Ev(ptr noundef nonnull align 8 dereferenceable(72) initializes((0, 8)) %0) unnamed_addr #5 align 2 personality ptr @__gxx_personality_v0 {
  store ptr getelementptr inbounds nuw inrange(-16, 56) (i8, ptr @_ZTVN6google8protobuf2io19OstreamOutputStreamE, i64 16), ptr %0, align 8, !tbaa !3
  %2 = getelementptr inbounds nuw i8, ptr %0, i64 24
  %3 = invoke noundef zeroext i1 @_ZN6google8protobuf2io26CopyingOutputStreamAdaptor5FlushEv(ptr noundef nonnull align 8 dereferenceable(48) %2)
          to label %_ZN6google8protobuf2io19OstreamOutputStreamD2Ev.exit unwind label %4

4:                                                ; preds = %1
  %5 = landingpad { ptr, i32 }
          catch ptr null
  %6 = extractvalue { ptr, i32 } %5, 0
  tail call void @__clang_call_terminate(ptr %6) #17
  unreachable

_ZN6google8protobuf2io19OstreamOutputStreamD2Ev.exit: ; preds = %1
  tail call void @_ZN6google8protobuf2io26CopyingOutputStreamAdaptorD1Ev(ptr noundef nonnull align 8 dereferenceable(48) %2) #15
  tail call void @_ZdlPv(ptr noundef nonnull %0) #18
  ret void
}